target datalayout = "e-m:e-p270:32:32-p271:32:32-p272:64:64-i64:64-f80:128-n8:16:32:64-S128"
target triple = "x86_64-pc-linux-gnu"

@.str = private unnamed_addr constant [4 x i8] c"%s\0A\00", align 1
@.str.1 = private unnamed_addr constant [2 x i8] c"-\00", align 1
@.str.2 = private unnamed_addr constant [2 x i8] c"\0A\00", align 1

; Function Attrs: noinline nounwind uwtable
define dso_local void @min(i8* %0) #0 {
  %2 = alloca i8*, align 8
  %3 = alloca [1000 x i8], align 16
  %4 = alloca [1000 x i8], align 16
  %5 = alloca i32, align 4
  %6 = alloca i32, align 4
  store i8* %0, i8** %2, align 8
  %7 = bitcast [1000 x i8]* %3 to i8*
  call void @llvm.memset.p0i8.i64(i8* align 16 %7, i8 0, i64 1000, i1 false)
  %8 = bitcast [1000 x i8]* %4 to i8*
  call void @llvm.memset.p0i8.i64(i8* align 16 %8, i8 0, i64 1000, i1 false)
  store i32 0, i32* %5, align 4
  %9 = load i8*, i8** %2, align 8
  %10 = getelementptr inbounds i8, i8* %9, i64 0
  %11 = load i8, i8* %10, align 1
  %12 = sext i8 %11 to i32
  %13 = icmp ne i32 %12, 45
  br i1 %13, label %14, label %90

14:                                               ; preds = %1
  store i32 0, i32* %6, align 4
  store i32 0, i32* %5, align 4
  br label %15

15:                                               ; preds = %34, %14
  %16 = load i32, i32* %5, align 4
  %17 = sext i32 %16 to i64
  %18 = load i8*, i8** %2, align 8
  %19 = call i64 @strlen(i8* %18) #4
  %20 = icmp ult i64 %17, %19
  br i1 %20, label %21, label %37

21:                                               ; preds = %15
  %22 = load i8*, i8** %2, align 8
  %23 = load i32, i32* %5, align 4
  %24 = sext i32 %23 to i64
  %25 = getelementptr inbounds i8, i8* %22, i64 %24
  %26 = load i8, i8* %25, align 1
  %27 = load i8*, i8** %2, align 8
  %28 = call i64 @strlen(i8* %27) #4
  %29 = sub i64 %28, 1
  %30 = load i32, i32* %5, align 4
  %31 = sext i32 %30 to i64
  %32 = sub i64 %29, %31
  %33 = getelementptr inbounds [1000 x i8], [1000 x i8]* %3, i64 0, i64 %32
  store i8 %26, i8* %33, align 1
  br label %34

34:                                               ; preds = %21
  %35 = load i32, i32* %5, align 4
  %36 = add nsw i32 %35, 1
  store i32 %36, i32* %5, align 4
  br label %15

37:                                               ; preds = %15
  store i32 0, i32* %5, align 4
  br label %38

38:                                               ; preds = %54, %37
  %39 = load i32, i32* %5, align 4
  %40 = sext i32 %39 to i64
  %41 = getelementptr inbounds [1000 x i8], [1000 x i8]* %3, i64 0, i64 0
  %42 = call i64 @strlen(i8* %41) #4
  %43 = icmp ult i64 %40, %42
  br i1 %43, label %44, label %57

44:                                               ; preds = %38
  %45 = load i32, i32* %5, align 4
  %46 = sext i32 %45 to i64
  %47 = getelementptr inbounds [1000 x i8], [1000 x i8]* %3, i64 0, i64 %46
  %48 = load i8, i8* %47, align 1
  %49 = sext i8 %48 to i32
  %50 = icmp ne i32 %49, 48
  br i1 %50, label %51, label %53

51:                                               ; preds = %44
  %52 = load i32, i32* %5, align 4
  store i32 %52, i32* %6, align 4
  br label %57

53:                                               ; preds = %44
  br label %54

54:                                               ; preds = %53
  %55 = load i32, i32* %5, align 4
  %56 = add nsw i32 %55, 1
  store i32 %56, i32* %5, align 4
  br label %38

57:                                               ; preds = %51, %38
  %58 = load i32, i32* %6, align 4
  %59 = sext i32 %58 to i64
  %60 = getelementptr inbounds [1000 x i8], [1000 x i8]* %3, i64 0, i64 0
  %61 = call i64 @strlen(i8* %60) #4
  %62 = icmp eq i64 %59, %61
  br i1 %62, label %63, label %65

63:                                               ; preds = %57
  %64 = getelementptr inbounds [1000 x i8], [1000 x i8]* %4, i64 0, i64 0
  store i8 48, i8* %64, align 16
  br label %87

65:                                               ; preds = %57
  %66 = load i32, i32* %6, align 4
  store i32 %66, i32* %5, align 4
  br label %67

67:                                               ; preds = %83, %65
  %68 = load i32, i32* %5, align 4
  %69 = sext i32 %68 to i64
  %70 = getelementptr inbounds [1000 x i8], [1000 x i8]* %3, i64 0, i64 0
  %71 = call i64 @strlen(i8* %70) #4
  %72 = icmp ult i64 %69, %71
  br i1 %72, label %73, label %86

73:                                               ; preds = %67
  %74 = load i32, i32* %5, align 4
  %75 = sext i32 %74 to i64
  %76 = getelementptr inbounds [1000 x i8], [1000 x i8]* %3, i64 0, i64 %75
  %77 = load i8, i8* %76, align 1
  %78 = load i32, i32* %5, align 4
  %79 = load i32, i32* %6, align 4
  %80 = sub nsw i32 %78, %79
  %81 = sext i32 %80 to i64
  %82 = getelementptr inbounds [1000 x i8], [1000 x i8]* %4, i64 0, i64 %81
  store i8 %77, i8* %82, align 1
  br label %83

83:                                               ; preds = %73
  %84 = load i32, i32* %5, align 4
  %85 = add nsw i32 %84, 1
  store i32 %85, i32* %5, align 4
  br label %67

86:                                               ; preds = %67
  br label %87

87:                                               ; preds = %86, %63
  %88 = getelementptr inbounds [1000 x i8], [1000 x i8]* %4, i64 0, i64 0
  %89 = call i32 (i8*, ...) @printf(i8* getelementptr inbounds ([4 x i8], [4 x i8]* @.str, i64 0, i64 0), i8* %88)
  br label %159

90:                                               ; preds = %1
  store i32 1, i32* %6, align 4
  %91 = getelementptr inbounds [1000 x i8], [1000 x i8]* %4, i64 0, i64 0
  store i8 45, i8* %91, align 16
  %92 = getelementptr inbounds [1000 x i8], [1000 x i8]* %3, i64 0, i64 0
  store i8 48, i8* %92, align 16
  store i32 1, i32* %5, align 4
  br label %93

93:                                               ; preds = %111, %90
  %94 = load i32, i32* %5, align 4
  %95 = sext i32 %94 to i64
  %96 = load i8*, i8** %2, align 8
  %97 = call i64 @strlen(i8* %96) #4
  %98 = icmp ult i64 %95, %97
  br i1 %98, label %99, label %114

99:                                               ; preds = %93
  %100 = load i8*, i8** %2, align 8
  %101 = load i8*, i8** %2, align 8
  %102 = call i64 @strlen(i8* %101) #4
  %103 = load i32, i32* %5, align 4
  %104 = sext i32 %103 to i64
  %105 = sub i64 %102, %104
  %106 = getelementptr inbounds i8, i8* %100, i64 %105
  %107 = load i8, i8* %106, align 1
  %108 = load i32, i32* %5, align 4
  %109 = sext i32 %108 to i64
  %110 = getelementptr inbounds [1000 x i8], [1000 x i8]* %3, i64 0, i64 %109
  store i8 %107, i8* %110, align 1
  br label %111

111:                                              ; preds = %99
  %112 = load i32, i32* %5, align 4
  %113 = add nsw i32 %112, 1
  store i32 %113, i32* %5, align 4
  br label %93

114:                                              ; preds = %93
  store i32 1, i32* %5, align 4
  br label %115

115:                                              ; preds = %131, %114
  %116 = load i32, i32* %5, align 4
  %117 = sext i32 %116 to i64
  %118 = getelementptr inbounds [1000 x i8], [1000 x i8]* %3, i64 0, i64 0
  %119 = call i64 @strlen(i8* %118) #4
  %120 = icmp ult i64 %117, %119
  br i1 %120, label %121, label %134

121:                                              ; preds = %115
  %122 = load i32, i32* %5, align 4
  %123 = sext i32 %122 to i64
  %124 = getelementptr inbounds [1000 x i8], [1000 x i8]* %3, i64 0, i64 %123
  %125 = load i8, i8* %124, align 1
  %126 = sext i8 %125 to i32
  %127 = icmp ne i32 %126, 48
  br i1 %127, label %128, label %130

128:                                              ; preds = %121
  %129 = load i32, i32* %5, align 4
  store i32 %129, i32* %6, align 4
  br label %134

130:                                              ; preds = %121
  br label %131

131:                                              ; preds = %130
  %132 = load i32, i32* %5, align 4
  %133 = add nsw i32 %132, 1
  store i32 %133, i32* %5, align 4
  br label %115

134:                                              ; preds = %128, %115
  %135 = load i32, i32* %6, align 4
  store i32 %135, i32* %5, align 4
  br label %136

136:                                              ; preds = %152, %134
  %137 = load i32, i32* %5, align 4
  %138 = sext i32 %137 to i64
  %139 = getelementptr inbounds [1000 x i8], [1000 x i8]* %3, i64 0, i64 0
  %140 = call i64 @strlen(i8* %139) #4
  %141 = icmp ult i64 %138, %140
  br i1 %141, label %142, label %155

142:                                              ; preds = %136
  %143 = load i32, i32* %5, align 4
  %144 = sext i32 %143 to i64
  %145 = getelementptr inbounds [1000 x i8], [1000 x i8]* %3, i64 0, i64 %144
  %146 = load i8, i8* %145, align 1
  %147 = load i32, i32* %5, align 4
  %148 = load i32, i32* %6, align 4
  %149 = sub nsw i32 %147, %148
  %150 = sext i32 %149 to i64
  %151 = getelementptr inbounds [1000 x i8], [1000 x i8]* %4, i64 0, i64 %150
  store i8 %146, i8* %151, align 1
  br label %152

152:                                              ; preds = %142
  %153 = load i32, i32* %5, align 4
  %154 = add nsw i32 %153, 1
  store i32 %154, i32* %5, align 4
  br label %136

155:                                              ; preds = %136
  %156 = call i32 (i8*, ...) @printf(i8* getelementptr inbounds ([2 x i8], [2 x i8]* @.str.1, i64 0, i64 0))
  %157 = getelementptr inbounds [1000 x i8], [1000 x i8]* %4, i64 0, i64 0
  %158 = call i32 (i8*, ...) @printf(i8* getelementptr inbounds ([4 x i8], [4 x i8]* @.str, i64 0, i64 0), i8* %157)
  br label %159

159:                                              ; preds = %155, %87
  %160 = call i32 (i8*, ...) @__isoc99_scanf(i8* getelementptr inbounds ([2 x i8], [2 x i8]* @.str.2, i64 0, i64 0))
  ret void
}

; Function Attrs: noinline nounwind uwtable
define dso_local void @main() #0 {
  %1 = alloca i32, align 4
  %2 = alloca [1000 x i8], align 16
  store i32 1, i32* %1, align 4
  br label %3

3:                                                ; preds = %11, %0
  %4 = load i32, i32* %1, align 4
  %5 = icmp sle i32 %4, 6
  br i1 %5, label %6, label %14

6:                                                ; preds = %3
  %7 = bitcast [1000 x i8]* %2 to i8*
  call void @llvm.memset.p0i8.i64(i8* align 16 %7, i8 0, i64 1000, i1 false)
  %8 = getelementptr inbounds [1000 x i8], [1000 x i8]* %2, i64 0, i64 0
  %9 = call i32 (i8*, ...) bitcast (i32 (...)* @gets to i32 (i8*, ...)*)(i8* %8)
  %10 = getelementptr inbounds [1000 x i8], [1000 x i8]* %2, i64 0, i64 0
  call void @min(i8* %10)
  br label %11

11:                                               ; preds = %6
  %12 = load i32, i32* %1, align 4
  %13 = add nsw i32 %12, 1
  store i32 %13, i32* %1, align 4
  br label %3

14:                                               ; preds = %3
  ret void
}